target datalayout = "e-m:e-p270:32:32-p271:32:32-p272:64:64-i64:64-i128:128-f80:128-n8:16:32:64-S128"
target triple = "x86_64-pc-linux-gnu"

%class.WorkerThreads = type { ptr, ptr, ptr, i32, i32, i32, %class.WorkerTaskDispatcher }
%class.WorkerTaskDispatcher = type { ptr, i32, i32, %class.Semaphore, %class.Semaphore }
%class.Semaphore = type { %class.PosixSemaphore }
%class.PosixSemaphore = type { %union.sem_t }
%union.sem_t = type { i64, [24 x i8] }
%class.ShenandoahHeapIterationRootScanner = type { %class.ShenandoahRootProcessor, %class.ShenandoahThreadRoots, %class.ShenandoahVMRoots, %class.ShenandoahClassLoaderDataRoots, %class.ShenandoahVMWeakRoots, %class.ShenandoahCodeCacheRoots }
%class.ShenandoahRootProcessor = type { ptr, %class.ShenandoahGCWorkerPhase }
%class.ShenandoahGCWorkerPhase = type <{ ptr, i32, [4 x i8] }>
%class.ShenandoahThreadRoots = type <{ i32, i8, [3 x i8] }>
%class.ShenandoahVMRoots = type <{ %class.OopStorageSetStrongParState, i32, [4 x i8] }>
%class.OopStorageSetStrongParState = type { %class.OopStorageSetParState }
%class.OopStorageSetParState = type { %struct.ValueObjArray }
%struct.ValueObjArray = type { [5 x ptr], %class.ValueObjBlock }
%class.ValueObjBlock = type { %"class.OopStorage::ParState", %class.ValueObjBlock.6 }
%"class.OopStorage::ParState" = type { %"class.OopStorage::BasicParState" }
%"class.OopStorage::BasicParState" = type { ptr, ptr, i64, i64, i32, i8, i64 }
%class.ValueObjBlock.6 = type { %"class.OopStorage::ParState", %class.ValueObjBlock.7 }
%class.ValueObjBlock.7 = type { %"class.OopStorage::ParState", %class.ValueObjBlock.8 }
%class.ValueObjBlock.8 = type { %"class.OopStorage::ParState", %class.ValueObjBlock.9 }
%class.ValueObjBlock.9 = type <{ %"class.OopStorage::ParState", %class.ValueObjBlock.10, [7 x i8] }>
%class.ValueObjBlock.10 = type { i8 }
%class.ShenandoahClassLoaderDataRoots = type { %struct.ShenandoahSharedSemaphore, i32 }
%struct.ShenandoahSharedSemaphore = type { [64 x i8], i8, [64 x i8] }
%class.ShenandoahVMWeakRoots = type <{ %class.OopStorageSetWeakParState, i32, [4 x i8] }>
%class.OopStorageSetWeakParState = type { %class.OopStorageSetParState.12 }
%class.OopStorageSetParState.12 = type { %struct.ValueObjArray.13 }
%struct.ValueObjArray.13 = type { [10 x ptr], %class.ValueObjBlock.14 }
%class.ValueObjBlock.14 = type { %"class.OopStorage::ParState", %class.ValueObjBlock.15 }
%class.ValueObjBlock.15 = type { %"class.OopStorage::ParState", %class.ValueObjBlock.16 }
%class.ValueObjBlock.16 = type { %"class.OopStorage::ParState", %class.ValueObjBlock.17 }
%class.ValueObjBlock.17 = type { %"class.OopStorage::ParState", %class.ValueObjBlock.18 }
%class.ValueObjBlock.18 = type { %"class.OopStorage::ParState", %class.ValueObjBlock }
%class.ShenandoahCodeCacheRoots = type { i32, %class.ShenandoahCodeRootsIterator }
%class.ShenandoahCodeRootsIterator = type { ptr }

; Function Attrs: mustprogress nounwind uwtable
define linkonce_odr hidden noundef i32 @_ZNK13WorkerThreads14active_workersEv(ptr noundef nonnull align 8 dereferenceable(120) %0) #1 comdat align 2 {
  %2 = alloca ptr, align 8
  store ptr %0, ptr %2, align 8
  %3 = load ptr, ptr %2, align 8
  %4 = getelementptr inbounds %class.WorkerThreads, ptr %3, i32 0, i32 5
  %5 = load i32, ptr %4, align 8
  ret i32 %5
}

; Function Attrs: mustprogress nounwind uwtable
define hidden void @_ZN14ShenandoahHeap24scan_roots_for_iterationEP5StackIP7oopDescL8MEMFLAGS5EEP28ObjectIterateScanRootClosure(ptr noundef nonnull align 8 dereferenceable(2657) %0, ptr noundef %1, ptr noundef %2) #1 align 2 {
  %4 = alloca ptr, align 8
  %5 = alloca ptr, align 8
  %6 = alloca ptr, align 8
  %7 = alloca i32, align 4
  %8 = alloca %class.ShenandoahHeapIterationRootScanner, align 8
  store ptr %0, ptr %4, align 8
  store ptr %1, ptr %5, align 8
  store ptr %2, ptr %6, align 8
  %9 = load ptr, ptr %4, align 8
  %10 = load ptr, ptr %9, align 8
  %11 = getelementptr inbounds ptr, ptr %10, i64 51
  %12 = load ptr, ptr %11, align 8
  %13 = call noundef ptr %12(ptr noundef nonnull align 8 dereferenceable(2657) %9)
  %14 = icmp ne ptr %13, null
  br i1 %14, label %15, label %21

15:                                               ; preds = %3
  %16 = load ptr, ptr %9, align 8
  %17 = getelementptr inbounds ptr, ptr %16, i64 51
  %18 = load ptr, ptr %17, align 8
  %19 = call noundef ptr %18(ptr noundef nonnull align 8 dereferenceable(2657) %9)
  %20 = call noundef i32 @_ZNK13WorkerThreads14active_workersEv(ptr noundef nonnull align 8 dereferenceable(120) %19)
  br label %22

21:                                               ; preds = %3
  br label %22

22:                                               ; preds = %21, %15
  %23 = phi i32 [ %20, %15 ], [ 1, %21 ]
  store i32 %23, ptr %7, align 4
  %24 = load i32, ptr %7, align 4
  call void @_ZN34ShenandoahHeapIterationRootScannerC1Ej(ptr noundef nonnull align 8 dereferenceable(1056) %8, i32 noundef %24)
  %25 = load ptr, ptr %6, align 8
  call void @_ZN34ShenandoahHeapIterationRootScanner8roots_doEP10OopClosure(ptr noundef nonnull align 8 dereferenceable(1056) %8, ptr noundef %25)
  call void @_ZN34ShenandoahHeapIterationRootScannerD2Ev(ptr noundef nonnull align 8 dereferenceable(1056) %8) #12
  ret void
}