; Function Attrs: mustprogress nounwind uwtable
define hidden void @_ZN14ShenandoahHeap24scan_roots_for_iterationEP5StackIP7oopDescL8MEMFLAGS5EEP28ObjectIterateScanRootClosure(ptr noundef nonnull align 8 dereferenceable(2657) %0, ptr nocapture noundef readnone %1, ptr noundef %2) local_unnamed_addr #1 align 2 {
  %4 = alloca %class.ShenandoahHeapIterationRootScanner, align 8
  %5 = load ptr, ptr %0, align 8
  %6 = getelementptr inbounds i8, ptr %5, i64 408
  %7 = load ptr, ptr %6, align 8
  %8 = tail call noundef ptr %7(ptr noundef nonnull align 8 dereferenceable(2657) %0) #26
  %.not = icmp eq ptr %8, null
  br i1 %.not, label %16, label %9

9:                                                ; preds = %3
  %10 = load ptr, ptr %0, align 8
  %11 = getelementptr inbounds i8, ptr %10, i64 408
  %12 = load ptr, ptr %11, align 8
  %13 = tail call noundef ptr %12(ptr noundef nonnull align 8 dereferenceable(2657) %0) #26
  %14 = getelementptr inbounds i8, ptr %13, i64 32
  %15 = load i32, ptr %14, align 8
  br label %16

16:                                               ; preds = %3, %9
  %17 = phi i32 [ %15, %9 ], [ 1, %3 ]
  call void @_ZN34ShenandoahHeapIterationRootScannerC1Ej(ptr noundef nonnull align 8 dereferenceable(1056) %4, i32 noundef %17) #26
  call void @_ZN34ShenandoahHeapIterationRootScanner8roots_doEP10OopClosure(ptr noundef nonnull align 8 dereferenceable(1056) %4, ptr noundef %2) #26
  call void @_ZN34ShenandoahHeapIterationRootScannerD2Ev(ptr noundef nonnull align 8 dereferenceable(1056) %4) #26
  ret void
}